ARM GAS  C:\Users\JOSHU_~1\AppData\Local\Temp\ccQxcLCM.s 			page 1


   1              		.syntax unified
   2              		.cpu cortex-m3
   3              		.fpu softvfp
   4              		.eabi_attribute 20, 1
   5              		.eabi_attribute 21, 1
   6              		.eabi_attribute 23, 3
   7              		.eabi_attribute 24, 1
   8              		.eabi_attribute 25, 1
   9              		.eabi_attribute 26, 1
  10              		.eabi_attribute 30, 6
  11              		.eabi_attribute 34, 1
  12              		.eabi_attribute 18, 4
  13              		.thumb
  14              		.syntax unified
  15              		.file	"main.c"
  16              		.text
  17              	.Ltext0:
  18              		.cfi_sections	.debug_frame
  19              		.section	.rodata
  20              		.align	2
  21              	.LC0:
  22 0000 0A00     		.ascii	"\012\000"
  23              		.section	.text.main,"ax",%progbits
  24              		.align	2
  25              		.global	main
  26              		.thumb
  27              		.thumb_func
  28              		.type	main, %function
  29              	main:
  30              	.LFB63:
  31              		.file 1 "main.c"
   1:main.c        **** /******************************************************************************
   2:main.c        **** * File Name: main.c
   3:main.c        **** *
   4:main.c        **** * Version: 1.10
   5:main.c        **** *
   6:main.c        **** * Description: This is the source code for the Blinking LED code example.
   7:main.c        **** *
   8:main.c        **** * Related Document: CE195352_PSoC_5LP_Blinking_LED.pdf
   9:main.c        **** *
  10:main.c        **** * Hardware Dependency: See CE195352_PSoC_5LP_Blinking_LED.pdf
  11:main.c        **** *
  12:main.c        **** *******************************************************************************
  13:main.c        **** * Copyright (2018), Cypress Semiconductor Corporation. All rights reserved.
  14:main.c        **** *******************************************************************************
  15:main.c        **** * This software, including source code, documentation and related materials
  16:main.c        **** * (“Software”), is owned by Cypress Semiconductor Corporation or one of its
  17:main.c        **** * subsidiaries (“Cypress”) and is protected by and subject to worldwide patent
  18:main.c        **** * protection (United States and foreign), United States copyright laws and
  19:main.c        **** * international treaty provisions. Therefore, you may use this Software only
  20:main.c        **** * as provided in the license agreement accompanying the software package from
  21:main.c        **** * which you obtained this Software (“EULA”).
  22:main.c        **** *
  23:main.c        **** * If no EULA applies, Cypress hereby grants you a personal, nonexclusive,
  24:main.c        **** * non-transferable license to copy, modify, and compile the Software source
  25:main.c        **** * code solely for use in connection with Cypress’s integrated circuit products.
  26:main.c        **** * Any reproduction, modification, translation, compilation, or representation
ARM GAS  C:\Users\JOSHU_~1\AppData\Local\Temp\ccQxcLCM.s 			page 2


  27:main.c        **** * of this Software except as specified above is prohibited without the express
  28:main.c        **** * written permission of Cypress.
  29:main.c        **** *
  30:main.c        **** * Disclaimer: THIS SOFTWARE IS PROVIDED AS-IS, WITH NO WARRANTY OF ANY KIND, 
  31:main.c        **** * EXPRESS OR IMPLIED, INCLUDING, BUT NOT LIMITED TO, NONINFRINGEMENT, IMPLIED 
  32:main.c        **** * WARRANTIES OF MERCHANTABILITY AND FITNESS FOR A PARTICULAR PURPOSE. Cypress 
  33:main.c        **** * reserves the right to make changes to the Software without notice. Cypress 
  34:main.c        **** * does not assume any liability arising out of the application or use of the 
  35:main.c        **** * Software or any product or circuit described in the Software. Cypress does 
  36:main.c        **** * not authorize its products for use in any products where a malfunction or 
  37:main.c        **** * failure of the Cypress product may reasonably be expected to result in 
  38:main.c        **** * significant property damage, injury or death (“High Risk Product”). By 
  39:main.c        **** * including Cypress’s product in a High Risk Product, the manufacturer of such 
  40:main.c        **** * system or application assumes all risk of such use and in doing so agrees to 
  41:main.c        **** * indemnify Cypress against all liability.
  42:main.c        **** *******************************************************************************/
  43:main.c        **** 
  44:main.c        **** #include <project.h>
  45:main.c        **** #include <stdlib.h>
  46:main.c        **** 
  47:main.c        **** /*******************************************************************************
  48:main.c        **** * Function Name: main
  49:main.c        **** ********************************************************************************
  50:main.c        **** *
  51:main.c        **** * Summary:
  52:main.c        **** *  The PWM is configured and started in the PWM_1_Start() function.
  53:main.c        **** *  The firmware then enters an idle loop, leaving control of the project
  54:main.c        **** *  to the fixed function PWM peripheral.
  55:main.c        **** *
  56:main.c        **** * Parameters:
  57:main.c        **** *  None.
  58:main.c        **** *
  59:main.c        **** * Return:
  60:main.c        **** *  None.
  61:main.c        **** *
  62:main.c        **** *******************************************************************************/
  63:main.c        **** 
  64:main.c        **** int main()
  65:main.c        **** {
  32              		.loc 1 65 0
  33              		.cfi_startproc
  34              		@ args = 0, pretend = 0, frame = 528
  35              		@ frame_needed = 1, uses_anonymous_args = 0
  36 0000 80B5     		push	{r7, lr}
  37              		.cfi_def_cfa_offset 8
  38              		.cfi_offset 7, -8
  39              		.cfi_offset 14, -4
  40 0002 ADF5047D 		sub	sp, sp, #528
  41              		.cfi_def_cfa_offset 536
  42 0006 00AF     		add	r7, sp, #0
  43              		.cfi_def_cfa_register 7
  66:main.c        ****     CyDelay(1000);
  44              		.loc 1 66 0
  45 0008 4FF47A70 		mov	r0, #1000
  46 000c FFF7FEFF 		bl	CyDelay
  67:main.c        ****     
  68:main.c        ****     /* Serial */
ARM GAS  C:\Users\JOSHU_~1\AppData\Local\Temp\ccQxcLCM.s 			page 3


  69:main.c        ****     CyGlobalIntEnable;
  47              		.loc 1 69 0
  48              		.syntax unified
  49              	@ 69 "main.c" 1
  50 0010 62B6     		CPSIE   i
  51              	@ 0 "" 2
  70:main.c        ****     UART_Start();
  52              		.loc 1 70 0
  53              		.thumb
  54              		.syntax unified
  55 0012 FFF7FEFF 		bl	UART_Start
  71:main.c        ****     int ch; 
  72:main.c        ****     char buffer[512];
  73:main.c        ****     uint16_t buffer_count = 0;
  56              		.loc 1 73 0
  57 0016 0023     		movs	r3, #0
  58 0018 A7F80E32 		strh	r3, [r7, #526]	@ movhi
  74:main.c        ****     
  75:main.c        ****     /* PWM */
  76:main.c        ****     PWM_Start();    
  59              		.loc 1 76 0
  60 001c FFF7FEFF 		bl	PWM_Start
  77:main.c        ****     int cmp = 9000; // cmp is between 8640 and 9120, 90%-95% of 9600.
  61              		.loc 1 77 0
  62 0020 42F22833 		movw	r3, #9000
  63 0024 C7F80832 		str	r3, [r7, #520]
  78:main.c        ****     int mltplr = 1;
  64              		.loc 1 78 0
  65 0028 0123     		movs	r3, #1
  66 002a C7F80432 		str	r3, [r7, #516]
  67              	.L4:
  79:main.c        ****     
  80:main.c        ****     while (1) {
  81:main.c        ****         ch = UART_GetChar(); // returns an int apparently
  68              		.loc 1 81 0
  69 002e FFF7FEFF 		bl	UART_GetChar
  70 0032 0346     		mov	r3, r0
  71 0034 C7F80032 		str	r3, [r7, #512]
  82:main.c        ****         
  83:main.c        ****         if (ch > 0) 
  72              		.loc 1 83 0
  73 0038 D7F80032 		ldr	r3, [r7, #512]
  74 003c 002B     		cmp	r3, #0
  75 003e F6DD     		ble	.L4
  84:main.c        ****         { 
  85:main.c        ****             if (ch == 13) { // if new line pressed
  76              		.loc 1 85 0
  77 0040 D7F80032 		ldr	r3, [r7, #512]
  78 0044 0D2B     		cmp	r3, #13
  79 0046 1FD1     		bne	.L3
  86:main.c        ****                 // Null terminate
  87:main.c        ****                 buffer[buffer_count++] = '\0';
  80              		.loc 1 87 0
  81 0048 B7F80E32 		ldrh	r3, [r7, #526]
  82 004c 5A1C     		adds	r2, r3, #1
  83 004e A7F80E22 		strh	r2, [r7, #526]	@ movhi
  84 0052 1A46     		mov	r2, r3
ARM GAS  C:\Users\JOSHU_~1\AppData\Local\Temp\ccQxcLCM.s 			page 4


  85 0054 3B46     		mov	r3, r7
  86 0056 0021     		movs	r1, #0
  87 0058 9954     		strb	r1, [r3, r2]
  88:main.c        **** 
  89:main.c        ****                 // Print back what was typed
  90:main.c        ****                 UART_PutString(buffer);
  88              		.loc 1 90 0
  89 005a 3B46     		mov	r3, r7
  90 005c 1846     		mov	r0, r3
  91 005e FFF7FEFF 		bl	UART_PutString
  91:main.c        ****                 UART_PutStringConst("\n");
  92              		.loc 1 91 0
  93 0062 1648     		ldr	r0, .L5
  94 0064 FFF7FEFF 		bl	UART_PutString
  92:main.c        **** 
  93:main.c        ****                 // Parse int from buffer
  94:main.c        ****                 cmp = atoi(buffer);
  95              		.loc 1 94 0
  96 0068 3B46     		mov	r3, r7
  97 006a 1846     		mov	r0, r3
  98 006c FFF7FEFF 		bl	atoi
  99 0070 C7F80802 		str	r0, [r7, #520]
  95:main.c        ****                 
  96:main.c        ****                 PWM_WriteCompare(cmp); // This is real time!!  
 100              		.loc 1 96 0
 101 0074 D7F80832 		ldr	r3, [r7, #520]
 102 0078 9BB2     		uxth	r3, r3
 103 007a 1846     		mov	r0, r3
 104 007c FFF7FEFF 		bl	PWM_WriteCompare
  97:main.c        ****                 
  98:main.c        ****                 // Spin motor:
  99:main.c        ****                 //if (cmp < 9250 && cmp > 8700) { // Manually tested range.
 100:main.c        ****                 //    PWM_WriteCompare(cmp); // This is real time!!    
 101:main.c        ****                 //}
 102:main.c        **** 
 103:main.c        ****                 // Reset buffer
 104:main.c        ****                 buffer_count = 0;
 105              		.loc 1 104 0
 106 0080 0023     		movs	r3, #0
 107 0082 A7F80E32 		strh	r3, [r7, #526]	@ movhi
 108 0086 D2E7     		b	.L4
 109              	.L3:
 105:main.c        ****             }
 106:main.c        ****             else if (ch >= 48 && ch <= 57 && buffer_count < sizeof(buffer) / sizeof(buffer[0]) - 1)
 110              		.loc 1 106 0
 111 0088 D7F80032 		ldr	r3, [r7, #512]
 112 008c 2F2B     		cmp	r3, #47
 113 008e CEDD     		ble	.L4
 114              		.loc 1 106 0 is_stmt 0 discriminator 1
 115 0090 D7F80032 		ldr	r3, [r7, #512]
 116 0094 392B     		cmp	r3, #57
 117 0096 CADC     		bgt	.L4
 118              		.loc 1 106 0 discriminator 2
 119 0098 B7F80E32 		ldrh	r3, [r7, #526]
 120 009c B3F5FF7F 		cmp	r3, #510
 121 00a0 C5D8     		bhi	.L4
 107:main.c        ****                 // Put character into buffer
ARM GAS  C:\Users\JOSHU_~1\AppData\Local\Temp\ccQxcLCM.s 			page 5


 108:main.c        ****                 buffer[buffer_count++] = ch;
 122              		.loc 1 108 0 is_stmt 1
 123 00a2 B7F80E32 		ldrh	r3, [r7, #526]
 124 00a6 5A1C     		adds	r2, r3, #1
 125 00a8 A7F80E22 		strh	r2, [r7, #526]	@ movhi
 126 00ac 1A46     		mov	r2, r3
 127 00ae D7F80032 		ldr	r3, [r7, #512]
 128 00b2 D9B2     		uxtb	r1, r3
 129 00b4 3B46     		mov	r3, r7
 130 00b6 9954     		strb	r1, [r3, r2]
 109:main.c        ****             }
 110:main.c        ****         }
 111:main.c        ****     }
 131              		.loc 1 111 0
 132 00b8 B9E7     		b	.L4
 133              	.L6:
 134 00ba 00BF     		.align	2
 135              	.L5:
 136 00bc 00000000 		.word	.LC0
 137              		.cfi_endproc
 138              	.LFE63:
 139              		.size	main, .-main
 140              		.text
 141              	.Letext0:
 142              		.file 2 "c:\\program files (x86)\\cypress\\psoc creator\\4.2\\psoc creator\\import\\gnu\\arm\\5.4.
 143              		.file 3 "c:\\program files (x86)\\cypress\\psoc creator\\4.2\\psoc creator\\import\\gnu\\arm\\5.4.
 144              		.file 4 "Generated_Source\\PSoC5/core_cm3.h"